target datalayout = "e-m:e-p270:32:32-p271:32:32-p272:64:64-i64:64-i128:128-f80:128-n8:16:32:64-S128"
target triple = "x86_64-pc-linux-gnu"

%"class.net::SpdyFramerVisitorAdapter" = type { %"class.net::SpdyFramerVisitorInterface", ptr, ptr }
%"class.net::SpdyFramerVisitorInterface" = type { ptr }

; Function Attrs: mustprogress uwtable
define void @_ZN3net24SpdyFramerVisitorAdapter14OnContinuationEjb(ptr noundef nonnull align 8 dereferenceable(24) %0, i32 noundef %1, i1 noundef zeroext %2) unnamed_addr #2 align 2 {
  %4 = alloca ptr, align 8
  %5 = alloca i32, align 4
  %6 = alloca i8, align 1
  store ptr %0, ptr %4, align 8, !tbaa !22
  store i32 %1, ptr %5, align 4, !tbaa !30
  %7 = zext i1 %2 to i8
  store i8 %7, ptr %6, align 1, !tbaa !19
  %8 = load ptr, ptr %4, align 8
  %9 = getelementptr inbounds nuw %"class.net::SpdyFramerVisitorAdapter", ptr %8, i32 0, i32 1
  %10 = load ptr, ptr %9, align 8, !tbaa !26
  %11 = load i32, ptr %5, align 4, !tbaa !30
  %12 = load i8, ptr %6, align 1, !tbaa !19, !range !20, !noundef !21
  %13 = trunc i8 %12 to i1
  %14 = load ptr, ptr %10, align 8, !tbaa !8
  %15 = getelementptr inbounds ptr, ptr %14, i64 26
  %16 = load ptr, ptr %15, align 8
  call void %16(ptr noundef nonnull align 8 dereferenceable(8) %10, i32 noundef %11, i1 noundef zeroext %13)
  ret void
}